(dp1
S'irc.undernet.org:6667'
p2
(dp3
S'nick'
p4
S'jrandom'
p5
sS'host'
p6
S'irc.undernet.org'
p7
sS'autojoin'
p8
(lp9
S'#Mp3Passion'
p10
aS'#Quit'
p11
aS'#bookz'
p12
aS'#undernet'
p13
asS'scripts'
p14
S''
sS'auth_nickserv'
p15
I00
sS'password'
p16
S''
sS'port'
p17
I6667
ssS'irc.rizon.net:6667'
p18
(dp19
S'nick'
p20
S'jrandom'
p21
sS'host'
p22
S'irc.rizon.net'
p23
sS'autojoin'
p24
(lp25
S'#utw'
p26
aS'#r/a/dio'
p27
aS'#commie-subs'
p28
aS'#chat'
p29
aS'#news'
p30
asS'scripts'
p31
S''
sS'auth_nickserv'
p32
I00
sS'password'
p33
S''
sS'port'
p34
I6667
ssS'irc.foonetic.net:6667'
p35
(dp36
S'nick'
p37
S'xjlk'
p38
sS'host'
p39
S'irc.foonetic.net'
p40
sS'autojoin'
p41
(lp42
S'#xkcd'
p43
aS'#usth-ict7'
p44
asS'scripts'
p45
S''
sS'auth_nickserv'
p46
I00
sS'password'
p47
S''
sS'port'
p48
I6667
ssS'irc.dal.net:6667'
p49
(dp50
g20
S'jrandom'
p51
sg22
S'irc.dal.net'
p52
sg24
(lp53
S'#cafechat'
p54
asg31
S''
sg32
I00
sg33
S''
sg34
I6667
ssS'irc.gamesurge.net:6667'
p55
(dp56
S'nick'
p57
S'jrandom'
p58
sS'host'
p59
S'irc.gamesurge.net'
p60
sS'autojoin'
p61
(lp62
S'#csgo'
p63
aS'#cncnet'
p64
aS'#cncnet-yr'
p65
asS'scripts'
p66
S''
sS'auth_nickserv'
p67
I00
sS'password'
p68
S''
sS'port'
p69
I6667
ssS'irc.quakenet.org:6667'
p70
(dp71
g20
S'jrandom'
p72
sg22
S'irc.quakenet.org'
p73
sg24
(lp74
S'#quakenet'
p75
aS'#globaloffensive'
p76
aS'#football'
p77
aS'#xonotic'
p78
asg31
S''
sg32
I00
sg33
S''
sg34
I6667
ssS'irc.de.ircnet.net:6667'
p79
(dp80
g57
S'jrandom'
p81
sg59
S'irc.de.ircnet.net'
p82
sg61
(lp83
S'#dragonz'
p84
aS'#eden'
p85
aS'#take-over'
p86
aS'#worldchat'
p87
asg66
S''
sg67
I00
sg68
S''
sg69
I6667
ssS'irc.onlinegamesnet.net:6667'
p88
(dp89
g57
S'jrandom'
p90
sg59
S'irc.onlinegamesnet.net'
p91
sg61
(lp92
S'#o.game'
p93
aS'#gameforge.com'
p94
aS'#natasha'
p95
asg66
S''
sg67
I00
sg68
S''
sg69
I6667
ssS'irc.synirc.net:6667'
p96
(dp97
g57
S'jrandom'
p98
sg59
S'irc.synirc.net'
p99
sg61
(lp100
S'#synirc'
p101
aS'#yospos'
p102
aS'#DOGnzb'
p103
asg66
S''
sg67
I00
sg68
S''
sg69
I6667
ssS'irc.gimp.org:6667'
p104
(dp105
g57
S'jrandom'
p106
sg59
S'irc.gimp.org'
p107
sg61
(lp108
S'#evolution'
p109
aS'#gnome-todo'
p110
aS'#nautilus'
p111
aS'#gimp-users'
p112
asg66
S''
sg67
I00
sg68
S''
sg69
I6667
ssS'irc.snoonet.org:6667'
p113
(dp114
g57
S'jrandom'
p115
sg59
S'irc.snoonet.org'
p116
sg61
(lp117
S'#f1'
p118
aS'#programming'
p119
aS'#europe'
p120
aS'#soonet'
p121
asg66
S''
sg67
I00
sg68
S''
sg69
I6667
ssS'irc.esper.net:6667'
p122
(dp123
g57
S'jrandom'
p124
sg59
S'irc.esper.net'
p125
sg61
(lp126
S'#coders'
p127
aS'#forgegradle'
p128
aS'#sponge'
p129
aS'#factorio'
p130
aS'#spacex'
p131
asg66
S''
sg67
I00
sg68
S''
sg69
I6667
ssS'irc.mibbit.com:6667'
p132
(dp133
g57
S'jrandom'
p134
sg59
S'irc.mibbit.com'
p135
sg61
(lp136
S'#minepl0x'
p137
aS'#hypickel'
p138
asg66
S''
sg67
I00
sg68
S''
sg69
I6667
ssS'irc.hackint.org:6667'
p139
(dp140
g57
S'jrandom'
p141
sg59
S'irc.hackint.org'
p142
sg61
(lp143
S'#freifunk'
p144
aS'#35c3'
p145
aS'#voc-lounge'
p146
aS'#hackint'
p147
asg66
S''
sg67
I00
sg68
S''
sg69
I6667
ssS'irc.oftc.net:6667'
p148
(dp149
S'nick'
p150
S'jrandom'
p151
sS'host'
p152
S'irc.oftc.net'
p153
sS'autojoin'
p154
(lp155
S'#oftc'
p156
aS'#ceph'
p157
aS'#qemu'
p158
aS'#moocows'
p159
asS'scripts'
p160
S''
sS'auth_nickserv'
p161
I00
sS'password'
p162
S''
sS'port'
p163
I6667
ssS'irc.geekshed.net:6667'
p164
(dp165
g57
S'jrandom'
p166
sg59
S'irc.geekshed.net'
p167
sg61
(lp168
S'#new'
p169
aS'#unfilter'
p170
aS'#theshed'
p171
aS'#hamfest'
p172
asg66
S''
sg67
I00
sg68
S''
sg69
I6667
ssS'irc.freenode.net:6667'
p173
(dp174
S'nick'
p175
S's__'
p176
sS'host'
p177
S'irc.freenode.net'
p178
sS'autojoin'
p179
(lp180
S'##linux'
p181
aS'#haskell'
p182
aS'#debian'
p183
aS'#xml'
p184
asS'scripts'
p185
S''
sS'auth_nickserv'
p186
I01
sS'password'
p187
S'123456'
p188
sS'port'
p189
I6667
ssS'irc.mozilla.org:6667'
p190
(dp191
S'nick'
p192
S'jrandom'
p193
sS'host'
p194
S'irc.mozilla.org'
p195
sS'autojoin'
p196
(lp197
S'#mobile'
p198
aS'#security'
p199
aS'#servo'
p200
aS'#firefox'
p201
asS'scripts'
p202
S''
sS'auth_nickserv'
p203
I00
sS'password'
p204
S''
sS'port'
p205
I6667
ssS'irc.p2p-irc.net:6667'
p206
(dp207
g57
S'jrandom'
p208
sg59
S'irc.p2p-irc.net'
p209
sg61
(lp210
S'#zomgwtfbbq'
p211
aS'#echo.pre'
p212
aS'#P2P-Net'
p213
asg66
S''
sg67
I00
sg68
S''
sg69
I6667
ssS'irc.servercentral.net:6667'
p214
(dp215
g20
S'jrandom'
p216
sg22
S'irc.servercentral.net'
p217
sg24
(lp218
S'#twisted'
p219
aS'#system'
p220
aS'#lel'
p221
aS'#footbal'
p222
asg31
S''
sg32
I00
sg33
S''
sg34
I6667
ss.