(dp1
S'irc.dal.net:6667'
p2
(dp3
S'nick'
p4
S'jrandom'
p5
sS'host'
p6
S'irc.dal.net'
p7
sS'autojoin'
p8
(lp9
S'#cafechat'
p10
asS'scripts'
p11
S''
sS'auth_nickserv'
p12
I00
sS'password'
p13
S''
sS'port'
p14
I6667
ssS'irc.gimp.org:6667'
p15
(dp16
S'nick'
p17
S'jrandom'
p18
sS'host'
p19
S'irc.gimp.org'
p20
sS'autojoin'
p21
(lp22
S'#evolution'
p23
aS'#gnome-todo'
p24
aS'#nautilus'
p25
aS'#gimp-users'
p26
asS'scripts'
p27
S''
sS'auth_nickserv'
p28
I00
sS'password'
p29
S''
sS'port'
p30
I6667
ssS'irc.mibbit.com:6667'
p31
(dp32
g17
S'jrandom'
p33
sg19
S'irc.mibbit.com'
p34
sg21
(lp35
S'#minepl0x'
p36
aS'#hypickel'
p37
asg27
S''
sg28
I00
sg29
S''
sg30
I6667
ssS'irc.p2p-irc.net:6667'
p38
(dp39
g17
S'jrandom'
p40
sg19
S'irc.p2p-irc.net'
p41
sg21
(lp42
S'#zomgwtfbbq'
p43
aS'#echo.pre'
p44
aS'#P2P-Net'
p45
asg27
S''
sg28
I00
sg29
S''
sg30
I6667
ssS'irc.synirc.net:6667'
p46
(dp47
g17
S'jrandom'
p48
sg19
S'irc.synirc.net'
p49
sg21
(lp50
S'#synirc'
p51
aS'#yospos'
p52
aS'#DOGnzb'
p53
asg27
S''
sg28
I00
sg29
S''
sg30
I6667
ssS'irc.onlinegamesnet.net:6667'
p54
(dp55
g17
S'jrandom'
p56
sg19
S'irc.onlinegamesnet.net'
p57
sg21
(lp58
S'#o.game'
p59
aS'#gameforge.com'
p60
aS'#natasha'
p61
asg27
S''
sg28
I00
sg29
S''
sg30
I6667
ssS'irc.hackint.org:6667'
p62
(dp63
g17
S'jrandom'
p64
sg19
S'irc.hackint.org'
p65
sg21
(lp66
S'#freifunk'
p67
aS'#35c3'
p68
aS'#voc-lounge'
p69
aS'#hackint'
p70
asg27
S''
sg28
I00
sg29
S''
sg30
I6667
ssS'irc.undernet.org:6667'
p71
(dp72
S'nick'
p73
S'jrandom'
p74
sS'host'
p75
S'irc.undernet.org'
p76
sS'autojoin'
p77
(lp78
S'#Mp3Passion'
p79
aS'#Quit'
p80
aS'#bookz'
p81
aS'#undernet'
p82
asS'scripts'
p83
S''
sS'auth_nickserv'
p84
I00
sS'password'
p85
S''
sS'port'
p86
I6667
ssS'irc.rizon.net:6667'
p87
(dp88
g4
S'jrandom'
p89
sg6
S'irc.rizon.net'
p90
sg8
(lp91
S'#utw'
p92
aS'#r/a/dio'
p93
aS'#commie-subs'
p94
aS'#chat'
p95
aS'#news'
p96
asg11
S''
sg12
I00
sg13
S''
sg14
I6667
ssS'irc.gamesurge.net:6667'
p97
(dp98
g17
S'jrandom'
p99
sg19
S'irc.gamesurge.net'
p100
sg21
(lp101
S'#csgo'
p102
aS'#cncnet'
p103
aS'#cncnet-yr'
p104
asg27
S''
sg28
I00
sg29
S''
sg30
I6667
ssS'irc.de.ircnet.net:6667'
p105
(dp106
g17
S'jrandom'
p107
sg19
S'irc.de.ircnet.net'
p108
sg21
(lp109
S'#dragonz'
p110
aS'#eden'
p111
aS'#take-over'
p112
aS'#worldchat'
p113
asg27
S''
sg28
I00
sg29
S''
sg30
I6667
ssS'irc.geekshed.net:6667'
p114
(dp115
g17
S'jrandom'
p116
sg19
S'irc.geekshed.net'
p117
sg21
(lp118
S'#new'
p119
aS'#unfilter'
p120
aS'#theshed'
p121
aS'#hamfest'
p122
asg27
S''
sg28
I00
sg29
S''
sg30
I6667
ssS'irc.oftc.net:6667'
p123
(dp124
S'nick'
p125
S'jrandom'
p126
sS'host'
p127
S'irc.oftc.net'
p128
sS'autojoin'
p129
(lp130
S'#oftc'
p131
aS'#ceph'
p132
aS'#qemu'
p133
aS'#moocows'
p134
asS'scripts'
p135
S''
sS'auth_nickserv'
p136
I00
sS'password'
p137
S''
sS'port'
p138
I6667
ssS'irc.servercentral.net:6667'
p139
(dp140
g4
S'jrandom'
p141
sg6
S'irc.servercentral.net'
p142
sg8
(lp143
S'#twisted'
p144
aS'#system'
p145
aS'#lel'
p146
aS'#footbal'
p147
asg11
S''
sg12
I00
sg13
S''
sg14
I6667
ssS'irc.mozilla.org:6667'
p148
(dp149
S'nick'
p150
S'jrandom'
p151
sS'host'
p152
S'irc.mozilla.org'
p153
sS'autojoin'
p154
(lp155
S'#mobile'
p156
aS'#security'
p157
aS'#servo'
p158
aS'#firefox'
p159
asS'scripts'
p160
S''
sS'auth_nickserv'
p161
I00
sS'password'
p162
S''
sS'port'
p163
I6667
ssS'irc.snoonet.org:6667'
p164
(dp165
g17
S'jrandom'
p166
sg19
S'irc.snoonet.org'
p167
sg21
(lp168
S'#f1'
p169
aS'#programming'
p170
aS'#europe'
p171
aS'#soonet'
p172
asg27
S''
sg28
I00
sg29
S''
sg30
I6667
ssS'irc.esper.net:6667'
p173
(dp174
g17
S'jrandom'
p175
sg19
S'irc.esper.net'
p176
sg21
(lp177
S'#coders'
p178
aS'#forgegradle'
p179
aS'#sponge'
p180
aS'#factorio'
p181
aS'#spacex'
p182
asg27
S''
sg28
I00
sg29
S''
sg30
I6667
ssS'irc.foonetic.net:6667'
p183
(dp184
S'nick'
p185
S'xjlk'
p186
sS'host'
p187
S'irc.foonetic.net'
p188
sS'autojoin'
p189
(lp190
S'#xkcd'
p191
aS'#usth-ict7'
p192
asS'scripts'
p193
S''
sS'auth_nickserv'
p194
I00
sS'password'
p195
S''
sS'port'
p196
I6667
ssS'irc.quakenet.org:6667'
p197
(dp198
g4
S'jrandom'
p199
sg6
S'irc.quakenet.org'
p200
sg8
(lp201
S'#quakenet'
p202
aS'#globaloffensive'
p203
aS'#football'
p204
aS'#xonotic'
p205
asg11
S''
sg12
I00
sg13
S''
sg14
I6667
ssS'irc.freenode.net:6667'
p206
(dp207
S'nick'
p208
S's__'
p209
sS'host'
p210
S'irc.freenode.net'
p211
sS'autojoin'
p212
(lp213
S'##linux'
p214
aS'#haskell'
p215
aS'#debian'
p216
aS'#xml'
p217
asS'scripts'
p218
S''
sS'auth_nickserv'
p219
I01
sS'password'
p220
S'123456'
p221
sS'port'
p222
I6667
ss.